; Function Attrs: mustprogress nounwind uwtable
define hidden noundef zeroext i1 @_ZN14PhaseIdealLoop30is_scaled_iv_plus_extra_offsetEP4NodeS1_S1_9BasicTypePlPS1_Pbi(ptr noundef nonnull align 8 dereferenceable(237) %0, ptr noundef %1, ptr noundef %2, ptr noundef %3, i8 noundef zeroext %4, ptr noundef %5, ptr noundef writeonly %6, ptr noundef %7, i32 noundef %8) local_unnamed_addr #0 align 2 {
  %10 = alloca ptr, align 8
  store ptr null, ptr %10, align 8
  %11 = getelementptr inbounds i8, ptr %2, i64 48
  %12 = load i32, ptr %11, align 8
  %13 = and i32 %12, 16
  %14 = icmp ne i32 %13, 0
  %15 = icmp slt i32 %8, 2
  %or.cond = and i1 %15, %14
  br i1 %or.cond, label %16, label %73

16:                                               ; preds = %9
  %17 = add nsw i32 %8, 1
  %18 = call noundef zeroext i1 @_ZN14PhaseIdealLoop24is_scaled_iv_plus_offsetEP4NodeS1_9BasicTypePlPS1_Pbi(ptr noundef nonnull align 8 dereferenceable(237) %0, ptr noundef %1, ptr noundef %3, i8 noundef zeroext %4, ptr noundef %5, ptr noundef nonnull %10, ptr noundef %7, i32 noundef %17)
  br i1 %18, label %19, label %73

19:                                               ; preds = %16
  %.not = icmp eq ptr %6, null
  br i1 %.not, label %73, label %20

20:                                               ; preds = %19
  %21 = load ptr, ptr %10, align 8
  %22 = getelementptr inbounds i8, ptr %21, i64 40
  %23 = load i32, ptr %22, align 8
  %24 = getelementptr inbounds i8, ptr %0, i64 32
  %25 = load i32, ptr %24, align 8
  %26 = icmp ugt i32 %25, %23
  br i1 %26, label %27, label %_ZNK14PhaseIdealLoop25get_ctrl_no_update_helperEPK4Node.exit.i.i

27:                                               ; preds = %20
  %28 = getelementptr inbounds i8, ptr %0, i64 40
  %29 = load ptr, ptr %28, align 8
  %30 = zext i32 %23 to i64
  %31 = getelementptr inbounds ptr, ptr %29, i64 %30
  %32 = load ptr, ptr %31, align 8
  %33 = ptrtoint ptr %32 to i64
  %34 = and i64 %33, -2
  %35 = inttoptr i64 %34 to ptr
  br label %_ZNK14PhaseIdealLoop25get_ctrl_no_update_helperEPK4Node.exit.i.i

_ZNK14PhaseIdealLoop25get_ctrl_no_update_helperEPK4Node.exit.i.i: ; preds = %27, %20
  %36 = phi ptr [ %35, %27 ], [ null, %20 ]
  %37 = getelementptr inbounds i8, ptr %36, i64 8
  %38 = load ptr, ptr %37, align 8
  %39 = load ptr, ptr %38, align 8
  %.not.i.i = icmp eq ptr %39, null
  br i1 %.not.i.i, label %.preheader.i.i, label %_ZNK14PhaseIdealLoop18get_ctrl_no_updateEPK4Node.exit.i

.preheader.i.i:                                   ; preds = %_ZNK14PhaseIdealLoop25get_ctrl_no_update_helperEPK4Node.exit.i.i
  %40 = getelementptr inbounds i8, ptr %0, i64 40
  %41 = load ptr, ptr %40, align 8
  br label %42

42:                                               ; preds = %_ZNK14PhaseIdealLoop25get_ctrl_no_update_helperEPK4Node.exit8.i.i, %.preheader.i.i
  %.0.i.i = phi ptr [ %53, %_ZNK14PhaseIdealLoop25get_ctrl_no_update_helperEPK4Node.exit8.i.i ], [ %36, %.preheader.i.i ]
  %43 = getelementptr inbounds i8, ptr %.0.i.i, i64 40
  %44 = load i32, ptr %43, align 8
  %45 = icmp ugt i32 %25, %44
  br i1 %45, label %46, label %_ZNK14PhaseIdealLoop25get_ctrl_no_update_helperEPK4Node.exit8.i.i

46:                                               ; preds = %42
  %47 = zext i32 %44 to i64
  %48 = getelementptr inbounds ptr, ptr %41, i64 %47
  %49 = load ptr, ptr %48, align 8
  %50 = ptrtoint ptr %49 to i64
  %51 = and i64 %50, -2
  %52 = inttoptr i64 %51 to ptr
  br label %_ZNK14PhaseIdealLoop25get_ctrl_no_update_helperEPK4Node.exit8.i.i

_ZNK14PhaseIdealLoop25get_ctrl_no_update_helperEPK4Node.exit8.i.i: ; preds = %46, %42
  %53 = phi ptr [ %52, %46 ], [ null, %42 ]
  %54 = getelementptr inbounds i8, ptr %53, i64 8
  %55 = load ptr, ptr %54, align 8
  %56 = load ptr, ptr %55, align 8
  %.not7.i.i = icmp eq ptr %56, null
  br i1 %.not7.i.i, label %42, label %57, !llvm.loop !9

57:                                               ; preds = %_ZNK14PhaseIdealLoop25get_ctrl_no_update_helperEPK4Node.exit8.i.i
  %58 = getelementptr inbounds i8, ptr %53, i64 44
  %59 = load i32, ptr %58, align 4
  %60 = and i32 %59, 7
  %61 = icmp eq i32 %60, 5
  %spec.select.i.i = select i1 %61, ptr %56, ptr %53
  br label %_ZNK14PhaseIdealLoop18get_ctrl_no_updateEPK4Node.exit.i

_ZNK14PhaseIdealLoop18get_ctrl_no_updateEPK4Node.exit.i: ; preds = %57, %_ZNK14PhaseIdealLoop25get_ctrl_no_update_helperEPK4Node.exit.i.i
  %.1.i.i = phi ptr [ %36, %_ZNK14PhaseIdealLoop25get_ctrl_no_update_helperEPK4Node.exit.i.i ], [ %spec.select.i.i, %57 ]
  br i1 %26, label %_ZN14PhaseIdealLoop8get_ctrlEPK4Node.exit, label %62

62:                                               ; preds = %_ZNK14PhaseIdealLoop18get_ctrl_no_updateEPK4Node.exit.i
  %63 = getelementptr inbounds i8, ptr %0, i64 24
  call void @_ZN10Node_Array4growEj(ptr noundef nonnull align 8 dereferenceable(24) %63, i32 noundef %23) #11
  br label %_ZN14PhaseIdealLoop8get_ctrlEPK4Node.exit

_ZN14PhaseIdealLoop8get_ctrlEPK4Node.exit:        ; preds = %_ZNK14PhaseIdealLoop18get_ctrl_no_updateEPK4Node.exit.i, %62
  %64 = ptrtoint ptr %.1.i.i to i64
  %65 = add nsw i64 %64, 1
  %66 = inttoptr i64 %65 to ptr
  %67 = getelementptr inbounds i8, ptr %0, i64 40
  %68 = load ptr, ptr %67, align 8
  %69 = zext i32 %23 to i64
  %70 = getelementptr inbounds ptr, ptr %68, i64 %69
  store ptr %66, ptr %70, align 8
  %71 = load ptr, ptr %10, align 8
  %72 = call noundef ptr @_ZN7AddNode4makeEP4NodeS1_9BasicType(ptr noundef %71, ptr noundef nonnull %2, i8 noundef zeroext %4) #11
  call void @_ZN14PhaseIdealLoop17register_new_nodeEP4NodeS1_(ptr noundef nonnull align 8 dereferenceable(237) %0, ptr noundef %72, ptr noundef nonnull %.1.i.i) #11
  store ptr %72, ptr %6, align 8
  br label %73

73:                                               ; preds = %9, %16, %19, %_ZN14PhaseIdealLoop8get_ctrlEPK4Node.exit
  %.0 = phi i1 [ true, %_ZN14PhaseIdealLoop8get_ctrlEPK4Node.exit ], [ true, %19 ], [ false, %16 ], [ false, %9 ]
  ret i1 %.0
}